target datalayout = "e-m:e-p270:32:32-p271:32:32-p272:64:64-i64:64-i128:128-f80:128-n8:16:32:64-S128"
target triple = "x86_64-unknown-linux-gnu"

%"class.Imath_3_2::Vec2" = type { i32, i32 }
%"class.Imf_3_2::Image" = type { ptr, %"class.Imath_3_2::Box", i32, i32, %"class.std::map", %"class.Imf_3_2::Array2D" }
%"class.Imath_3_2::Box" = type { %"class.Imath_3_2::Vec2", %"class.Imath_3_2::Vec2" }
%"class.std::map" = type { %"class.std::_Rb_tree" }
%"class.std::_Rb_tree" = type { %"struct.std::_Rb_tree<std::__cxx11::basic_string<char>, std::pair<const std::__cxx11::basic_string<char>, Imf_3_2::Image::ChannelInfo>, std::_Select1st<std::pair<const std::__cxx11::basic_string<char>, Imf_3_2::Image::ChannelInfo>>, std::less<std::__cxx11::basic_string<char>>>::_Rb_tree_impl" }
%"struct.std::_Rb_tree<std::__cxx11::basic_string<char>, std::pair<const std::__cxx11::basic_string<char>, Imf_3_2::Image::ChannelInfo>, std::_Select1st<std::pair<const std::__cxx11::basic_string<char>, Imf_3_2::Image::ChannelInfo>>, std::less<std::__cxx11::basic_string<char>>>::_Rb_tree_impl" = type { %"struct.std::_Rb_tree_key_compare", %"struct.std::_Rb_tree_header" }
%"struct.std::_Rb_tree_key_compare" = type { %"struct.std::less" }
%"struct.std::less" = type { i8 }
%"struct.std::_Rb_tree_header" = type { %"struct.std::_Rb_tree_node_base", i64 }
%"struct.std::_Rb_tree_node_base" = type { i32, ptr, ptr, ptr }
%"class.Imf_3_2::Array2D" = type { i64, i64, ptr }

; Function Attrs: mustprogress nounwind uwtable
define linkonce_odr hidden noundef nonnull align 4 dereferenceable(8) ptr @_ZN9Imath_3_24Vec2IiEaSERKS1_(ptr noundef nonnull align 4 dereferenceable(8) %this, ptr noundef nonnull align 4 dereferenceable(8) %v) #5 comdat align 2 {
entry:
  %this.addr = alloca ptr, align 8
  %v.addr = alloca ptr, align 8
  store ptr %this, ptr %this.addr, align 8
  store ptr %v, ptr %v.addr, align 8
  %this1 = load ptr, ptr %this.addr, align 8
  %0 = load ptr, ptr %v.addr, align 8
  %x = getelementptr inbounds %"class.Imath_3_2::Vec2", ptr %0, i32 0, i32 0
  %1 = load i32, ptr %x, align 4
  %x2 = getelementptr inbounds %"class.Imath_3_2::Vec2", ptr %this1, i32 0, i32 0
  store i32 %1, ptr %x2, align 4
  %2 = load ptr, ptr %v.addr, align 8
  %y = getelementptr inbounds %"class.Imath_3_2::Vec2", ptr %2, i32 0, i32 1
  %3 = load i32, ptr %y, align 4
  %y3 = getelementptr inbounds %"class.Imath_3_2::Vec2", ptr %this1, i32 0, i32 1
  store i32 %3, ptr %y3, align 4
  ret ptr %this1
}

; Function Attrs: mustprogress nounwind uwtable
define linkonce_odr hidden void @_ZN9Imath_3_24Vec2IiEC2Ev(ptr noundef nonnull align 4 dereferenceable(8) %this) unnamed_addr #5 comdat align 2 {
entry:
  %this.addr = alloca ptr, align 8
  store ptr %this, ptr %this.addr, align 8
  ret void
}

; Function Attrs: mustprogress uwtable
define linkonce_odr hidden void @_ZN7Imf_3_27Array2DIPNS_10ImageLevelEE11resizeEraseEll(ptr noundef nonnull align 8 dereferenceable(24) %this, i64 noundef %sizeX, i64 noundef %sizeY) #4 comdat align 2 {
entry:
  %this.addr = alloca ptr, align 8
  %sizeX.addr = alloca i64, align 8
  %sizeY.addr = alloca i64, align 8
  %tmp = alloca ptr, align 8
  store ptr %this, ptr %this.addr, align 8
  store i64 %sizeX, ptr %sizeX.addr, align 8
  store i64 %sizeY, ptr %sizeY.addr, align 8
  %this1 = load ptr, ptr %this.addr, align 8
  %0 = load i64, ptr %sizeX.addr, align 8
  %1 = load i64, ptr %sizeY.addr, align 8
  %mul = mul nsw i64 %0, %1
  %2 = call { i64, i1 } @llvm.umul.with.overflow.i64(i64 %mul, i64 8)
  %3 = extractvalue { i64, i1 } %2, 1
  %4 = extractvalue { i64, i1 } %2, 0
  %5 = select i1 %3, i64 -1, i64 %4
  %call = call noalias noundef nonnull ptr @_Znam(i64 noundef %5) #18
  store ptr %call, ptr %tmp, align 8
  %_data = getelementptr inbounds %"class.Imf_3_2::Array2D", ptr %this1, i32 0, i32 2
  %6 = load ptr, ptr %_data, align 8
  %isnull = icmp eq ptr %6, null
  br i1 %isnull, label %delete.end, label %delete.notnull

delete.notnull:                                   ; preds = %entry
  call void @_ZdaPv(ptr noundef %6) #16
  br label %delete.end

delete.end:                                       ; preds = %delete.notnull, %entry
  %7 = load i64, ptr %sizeX.addr, align 8
  %_sizeX = getelementptr inbounds %"class.Imf_3_2::Array2D", ptr %this1, i32 0, i32 0
  store i64 %7, ptr %_sizeX, align 8
  %8 = load i64, ptr %sizeY.addr, align 8
  %_sizeY = getelementptr inbounds %"class.Imf_3_2::Array2D", ptr %this1, i32 0, i32 1
  store i64 %8, ptr %_sizeY, align 8
  %9 = load ptr, ptr %tmp, align 8
  %_data2 = getelementptr inbounds %"class.Imf_3_2::Array2D", ptr %this1, i32 0, i32 2
  store ptr %9, ptr %_data2, align 8
  ret void
}

; Function Attrs: mustprogress nounwind uwtable
define linkonce_odr hidden noundef ptr @_ZN7Imf_3_27Array2DIPNS_10ImageLevelEEixEl(ptr noundef nonnull align 8 dereferenceable(24) %this, i64 noundef %x) #5 comdat align 2 {
entry:
  %this.addr = alloca ptr, align 8
  %x.addr = alloca i64, align 8
  store ptr %this, ptr %this.addr, align 8
  store i64 %x, ptr %x.addr, align 8
  %this1 = load ptr, ptr %this.addr, align 8
  %_data = getelementptr inbounds %"class.Imf_3_2::Array2D", ptr %this1, i32 0, i32 2
  %0 = load ptr, ptr %_data, align 8
  %1 = load i64, ptr %x.addr, align 8
  %_sizeY = getelementptr inbounds %"class.Imf_3_2::Array2D", ptr %this1, i32 0, i32 1
  %2 = load i64, ptr %_sizeY, align 8
  %mul = mul nsw i64 %1, %2
  %add.ptr = getelementptr inbounds ptr, ptr %0, i64 %mul
  ret ptr %add.ptr
}

; Function Attrs: mustprogress nounwind uwtable
define linkonce_odr hidden noundef i64 @_ZNK7Imf_3_27Array2DIPNS_10ImageLevelEE5widthEv(ptr noundef nonnull align 8 dereferenceable(24) %this) #5 comdat align 2 {
entry:
  %this.addr = alloca ptr, align 8
  store ptr %this, ptr %this.addr, align 8
  %this1 = load ptr, ptr %this.addr, align 8
  %_sizeY = getelementptr inbounds %"class.Imf_3_2::Array2D", ptr %this1, i32 0, i32 1
  %0 = load i64, ptr %_sizeY, align 8
  ret i64 %0
}

; Function Attrs: mustprogress nounwind uwtable
define linkonce_odr hidden noundef i64 @_ZNK7Imf_3_27Array2DIPNS_10ImageLevelEE6heightEv(ptr noundef nonnull align 8 dereferenceable(24) %this) #5 comdat align 2 {
entry:
  %this.addr = alloca ptr, align 8
  store ptr %this, ptr %this.addr, align 8
  %this1 = load ptr, ptr %this.addr, align 8
  %_sizeX = getelementptr inbounds %"class.Imf_3_2::Array2D", ptr %this1, i32 0, i32 0
  %0 = load i64, ptr %_sizeX, align 8
  ret i64 %0
}

; Function Attrs: mustprogress nounwind uwtable
define linkonce_odr hidden noundef nonnull align 4 dereferenceable(16) ptr @_ZN9Imath_3_23BoxINS_4Vec2IiEEEaSEOS3_(ptr noundef nonnull align 4 dereferenceable(16) %this, ptr noundef nonnull align 4 dereferenceable(16) %0) #5 comdat align 2 {
entry:
  %this.addr = alloca ptr, align 8
  %.addr = alloca ptr, align 8
  store ptr %this, ptr %this.addr, align 8
  store ptr %0, ptr %.addr, align 8
  %this1 = load ptr, ptr %this.addr, align 8
  %min = getelementptr inbounds %"class.Imath_3_2::Box", ptr %this1, i32 0, i32 0
  %1 = load ptr, ptr %.addr, align 8
  %min2 = getelementptr inbounds %"class.Imath_3_2::Box", ptr %1, i32 0, i32 0
  %call = call noundef nonnull align 4 dereferenceable(8) ptr @_ZN9Imath_3_24Vec2IiEaSERKS1_(ptr noundef nonnull align 4 dereferenceable(8) %min, ptr noundef nonnull align 4 dereferenceable(8) %min2) #3
  %max = getelementptr inbounds %"class.Imath_3_2::Box", ptr %this1, i32 0, i32 1
  %2 = load ptr, ptr %.addr, align 8
  %max3 = getelementptr inbounds %"class.Imath_3_2::Box", ptr %2, i32 0, i32 1
  %call4 = call noundef nonnull align 4 dereferenceable(8) ptr @_ZN9Imath_3_24Vec2IiEaSERKS1_(ptr noundef nonnull align 4 dereferenceable(8) %max, ptr noundef nonnull align 4 dereferenceable(8) %max3) #3
  ret ptr %this1
}

; Function Attrs: mustprogress nounwind uwtable
define linkonce_odr hidden void @_ZN9Imath_3_23BoxINS_4Vec2IiEEEC2ERKS2_S5_(ptr noundef nonnull align 4 dereferenceable(16) %this, ptr noundef nonnull align 4 dereferenceable(8) %minT, ptr noundef nonnull align 4 dereferenceable(8) %maxT) unnamed_addr #5 comdat align 2 {
entry:
  %this.addr = alloca ptr, align 8
  %minT.addr = alloca ptr, align 8
  %maxT.addr = alloca ptr, align 8
  store ptr %this, ptr %this.addr, align 8
  store ptr %minT, ptr %minT.addr, align 8
  store ptr %maxT, ptr %maxT.addr, align 8
  %this1 = load ptr, ptr %this.addr, align 8
  %min = getelementptr inbounds %"class.Imath_3_2::Box", ptr %this1, i32 0, i32 0
  call void @_ZN9Imath_3_24Vec2IiEC2Ev(ptr noundef nonnull align 4 dereferenceable(8) %min) #3
  %max = getelementptr inbounds %"class.Imath_3_2::Box", ptr %this1, i32 0, i32 1
  call void @_ZN9Imath_3_24Vec2IiEC2Ev(ptr noundef nonnull align 4 dereferenceable(8) %max) #3
  %0 = load ptr, ptr %minT.addr, align 8
  %min2 = getelementptr inbounds %"class.Imath_3_2::Box", ptr %this1, i32 0, i32 0
  %call = call noundef nonnull align 4 dereferenceable(8) ptr @_ZN9Imath_3_24Vec2IiEaSERKS1_(ptr noundef nonnull align 4 dereferenceable(8) %min2, ptr noundef nonnull align 4 dereferenceable(8) %0) #3
  %1 = load ptr, ptr %maxT.addr, align 8
  %max3 = getelementptr inbounds %"class.Imath_3_2::Box", ptr %this1, i32 0, i32 1
  %call4 = call noundef nonnull align 4 dereferenceable(8) ptr @_ZN9Imath_3_24Vec2IiEaSERKS1_(ptr noundef nonnull align 4 dereferenceable(8) %max3, ptr noundef nonnull align 4 dereferenceable(8) %1) #3
  ret void
}

; Function Attrs: mustprogress nounwind uwtable
define linkonce_odr hidden void @_ZN9Imath_3_24Vec2IiEC2Eii(ptr noundef nonnull align 4 dereferenceable(8) %this, i32 noundef %a, i32 noundef %b) unnamed_addr #5 comdat align 2 {
entry:
  %this.addr = alloca ptr, align 8
  %a.addr = alloca i32, align 4
  %b.addr = alloca i32, align 4
  store ptr %this, ptr %this.addr, align 8
  store i32 %a, ptr %a.addr, align 4
  store i32 %b, ptr %b.addr, align 4
  %this1 = load ptr, ptr %this.addr, align 8
  %x = getelementptr inbounds %"class.Imath_3_2::Vec2", ptr %this1, i32 0, i32 0
  %0 = load i32, ptr %a.addr, align 4
  store i32 %0, ptr %x, align 4
  %y = getelementptr inbounds %"class.Imath_3_2::Vec2", ptr %this1, i32 0, i32 1
  %1 = load i32, ptr %b.addr, align 4
  store i32 %1, ptr %y, align 4
  ret void
}

; Function Attrs: mustprogress uwtable
define hidden void @_ZN7Imf_3_25Image11clearLevelsEv(ptr noundef nonnull align 8 dereferenceable(104) %this) #4 align 2 {
entry:
  %this.addr = alloca ptr, align 8
  %ref.tmp = alloca %"class.Imath_3_2::Box", align 4
  %ref.tmp2 = alloca %"class.Imath_3_2::Vec2", align 4
  %ref.tmp3 = alloca %"class.Imath_3_2::Vec2", align 4
  %y = alloca i32, align 4
  %x = alloca i32, align 4
  store ptr %this, ptr %this.addr, align 8
  %this1 = load ptr, ptr %this.addr, align 8
  call void @_ZN9Imath_3_24Vec2IiEC2Eii(ptr noundef nonnull align 4 dereferenceable(8) %ref.tmp2, i32 noundef 0, i32 noundef 0) #3
  call void @_ZN9Imath_3_24Vec2IiEC2Eii(ptr noundef nonnull align 4 dereferenceable(8) %ref.tmp3, i32 noundef -1, i32 noundef -1) #3
  call void @_ZN9Imath_3_23BoxINS_4Vec2IiEEEC2ERKS2_S5_(ptr noundef nonnull align 4 dereferenceable(16) %ref.tmp, ptr noundef nonnull align 4 dereferenceable(8) %ref.tmp2, ptr noundef nonnull align 4 dereferenceable(8) %ref.tmp3) #3
  %_dataWindow = getelementptr inbounds %"class.Imf_3_2::Image", ptr %this1, i32 0, i32 1
  %call = call noundef nonnull align 4 dereferenceable(16) ptr @_ZN9Imath_3_23BoxINS_4Vec2IiEEEaSEOS3_(ptr noundef nonnull align 4 dereferenceable(16) %_dataWindow, ptr noundef nonnull align 4 dereferenceable(16) %ref.tmp) #3
  store i32 0, ptr %y, align 4
  br label %for.cond

for.cond:                                         ; preds = %for.inc14, %entry
  %0 = load i32, ptr %y, align 4
  %conv = sext i32 %0 to i64
  %_levels = getelementptr inbounds %"class.Imf_3_2::Image", ptr %this1, i32 0, i32 5
  %call4 = call noundef i64 @_ZNK7Imf_3_27Array2DIPNS_10ImageLevelEE6heightEv(ptr noundef nonnull align 8 dereferenceable(24) %_levels)
  %cmp = icmp slt i64 %conv, %call4
  br i1 %cmp, label %for.body, label %for.end16

for.body:                                         ; preds = %for.cond
  store i32 0, ptr %x, align 4
  br label %for.cond5

for.cond5:                                        ; preds = %for.inc, %for.body
  %1 = load i32, ptr %x, align 4
  %conv6 = sext i32 %1 to i64
  %_levels7 = getelementptr inbounds %"class.Imf_3_2::Image", ptr %this1, i32 0, i32 5
  %call8 = call noundef i64 @_ZNK7Imf_3_27Array2DIPNS_10ImageLevelEE5widthEv(ptr noundef nonnull align 8 dereferenceable(24) %_levels7)
  %cmp9 = icmp slt i64 %conv6, %call8
  br i1 %cmp9, label %for.body10, label %for.end

for.body10:                                       ; preds = %for.cond5
  %_levels11 = getelementptr inbounds %"class.Imf_3_2::Image", ptr %this1, i32 0, i32 5
  %2 = load i32, ptr %y, align 4
  %conv12 = sext i32 %2 to i64
  %call13 = call noundef ptr @_ZN7Imf_3_27Array2DIPNS_10ImageLevelEEixEl(ptr noundef nonnull align 8 dereferenceable(24) %_levels11, i64 noundef %conv12)
  %3 = load i32, ptr %x, align 4
  %idxprom = sext i32 %3 to i64
  %arrayidx = getelementptr inbounds ptr, ptr %call13, i64 %idxprom
  %4 = load ptr, ptr %arrayidx, align 8
  %isnull = icmp eq ptr %4, null
  br i1 %isnull, label %delete.end, label %delete.notnull

delete.notnull:                                   ; preds = %for.body10
  %vtable = load ptr, ptr %4, align 8
  %vfn = getelementptr inbounds ptr, ptr %vtable, i64 1
  %5 = load ptr, ptr %vfn, align 8
  call void %5(ptr noundef nonnull align 8 dereferenceable(40) %4) #3
  br label %delete.end

delete.end:                                       ; preds = %delete.notnull, %for.body10
  br label %for.inc

for.inc:                                          ; preds = %delete.end
  %6 = load i32, ptr %x, align 4
  %inc = add nsw i32 %6, 1
  store i32 %inc, ptr %x, align 4
  br label %for.cond5, !llvm.loop !4

for.end:                                          ; preds = %for.cond5
  br label %for.inc14

for.inc14:                                        ; preds = %for.end
  %7 = load i32, ptr %y, align 4
  %inc15 = add nsw i32 %7, 1
  store i32 %inc15, ptr %y, align 4
  br label %for.cond, !llvm.loop !6

for.end16:                                        ; preds = %for.cond
  %_levels17 = getelementptr inbounds %"class.Imf_3_2::Image", ptr %this1, i32 0, i32 5
  call void @_ZN7Imf_3_27Array2DIPNS_10ImageLevelEE11resizeEraseEll(ptr noundef nonnull align 8 dereferenceable(24) %_levels17, i64 noundef 0, i64 noundef 0)
  ret void
}