; Function Attrs: mustprogress uwtable
define hidden void @_ZN7Imf_3_25Image11clearLevelsEv(ptr nocapture noundef nonnull align 8 dereferenceable(104) %this) local_unnamed_addr #6 align 2 {
entry:
  %_dataWindow = getelementptr inbounds i8, ptr %this, i64 8
  store <4 x i32> <i32 0, i32 0, i32 -1, i32 -1>, ptr %_dataWindow, align 8
  %_levels = getelementptr inbounds i8, ptr %this, i64 80
  %0 = load i64, ptr %_levels, align 8
  %cmp15 = icmp sgt i64 %0, 0
  br i1 %cmp15, label %for.cond5.preheader.lr.ph, label %for.end16

for.cond5.preheader.lr.ph:                        ; preds = %entry
  %_sizeY.i = getelementptr inbounds i8, ptr %this, i64 88
  %_data.i = getelementptr inbounds i8, ptr %this, i64 96
  %1 = load i64, ptr %_sizeY.i, align 8
  %2 = icmp sgt i64 %1, 0
  br i1 %2, label %for.cond5.preheader, label %for.end16

for.cond5.preheader:                              ; preds = %for.cond5.preheader.lr.ph, %for.inc14
  %3 = phi i64 [ %12, %for.inc14 ], [ %0, %for.cond5.preheader.lr.ph ]
  %4 = phi i64 [ %13, %for.inc14 ], [ %1, %for.cond5.preheader.lr.ph ]
  %5 = phi i64 [ %14, %for.inc14 ], [ %1, %for.cond5.preheader.lr.ph ]
  %indvars.iv21 = phi i64 [ %indvars.iv.next22, %for.inc14 ], [ 0, %for.cond5.preheader.lr.ph ]
  %cmp912 = icmp sgt i64 %5, 0
  br i1 %cmp912, label %for.body10, label %for.inc14

for.body10:                                       ; preds = %for.cond5.preheader, %for.inc
  %6 = phi i64 [ %11, %for.inc ], [ %4, %for.cond5.preheader ]
  %indvars.iv = phi i64 [ %indvars.iv.next, %for.inc ], [ 0, %for.cond5.preheader ]
  %7 = phi i64 [ %11, %for.inc ], [ %5, %for.cond5.preheader ]
  %8 = load ptr, ptr %_data.i, align 8
  %mul.i = mul nsw i64 %7, %indvars.iv21
  %add.ptr.i = getelementptr inbounds ptr, ptr %8, i64 %mul.i
  %arrayidx = getelementptr inbounds ptr, ptr %add.ptr.i, i64 %indvars.iv
  %9 = load ptr, ptr %arrayidx, align 8
  %isnull = icmp eq ptr %9, null
  br i1 %isnull, label %for.inc, label %delete.notnull

delete.notnull:                                   ; preds = %for.body10
  %vtable = load ptr, ptr %9, align 8
  %vfn = getelementptr inbounds i8, ptr %vtable, i64 8
  %10 = load ptr, ptr %vfn, align 8
  tail call void %10(ptr noundef nonnull align 8 dereferenceable(40) %9) #22
  %.pre = load i64, ptr %_sizeY.i, align 8
  br label %for.inc

for.inc:                                          ; preds = %for.body10, %delete.notnull
  %11 = phi i64 [ %6, %for.body10 ], [ %.pre, %delete.notnull ]
  %indvars.iv.next = add nuw nsw i64 %indvars.iv, 1
  %cmp9 = icmp sgt i64 %11, %indvars.iv.next
  br i1 %cmp9, label %for.body10, label %for.inc14.loopexit, !llvm.loop !4

for.inc14.loopexit:                               ; preds = %for.inc
  %.pre24 = load i64, ptr %_levels, align 8
  br label %for.inc14

for.inc14:                                        ; preds = %for.inc14.loopexit, %for.cond5.preheader
  %12 = phi i64 [ %.pre24, %for.inc14.loopexit ], [ %3, %for.cond5.preheader ]
  %13 = phi i64 [ %11, %for.inc14.loopexit ], [ %4, %for.cond5.preheader ]
  %14 = phi i64 [ %11, %for.inc14.loopexit ], [ %5, %for.cond5.preheader ]
  %indvars.iv.next22 = add nuw nsw i64 %indvars.iv21, 1
  %cmp = icmp sgt i64 %12, %indvars.iv.next22
  br i1 %cmp, label %for.cond5.preheader, label %for.end16, !llvm.loop !6

for.end16:                                        ; preds = %for.inc14, %for.cond5.preheader.lr.ph, %entry
  %call.i = tail call noalias noundef nonnull ptr @_Znam(i64 noundef 0) #23
  %_data.i10 = getelementptr inbounds i8, ptr %this, i64 96
  %15 = load ptr, ptr %_data.i10, align 8
  %isnull.i = icmp eq ptr %15, null
  br i1 %isnull.i, label %_ZN7Imf_3_27Array2DIPNS_10ImageLevelEE11resizeEraseEll.exit, label %delete.notnull.i

delete.notnull.i:                                 ; preds = %for.end16
  tail call void @_ZdaPv(ptr noundef nonnull %15) #24
  br label %_ZN7Imf_3_27Array2DIPNS_10ImageLevelEE11resizeEraseEll.exit

_ZN7Imf_3_27Array2DIPNS_10ImageLevelEE11resizeEraseEll.exit: ; preds = %for.end16, %delete.notnull.i
  tail call void @llvm.memset.p0.i64(ptr noundef nonnull align 8 dereferenceable(16) %_levels, i8 0, i64 16, i1 false)
  store ptr %call.i, ptr %_data.i10, align 8
  ret void
}